; Function Attrs: null_pointer_is_valid sspstrong uwtable
define internal noundef i32 @decode_dataitem_li(ptr noundef %0, ptr noundef readonly captures(none) %1, ptr noundef %2, ptr readnone captures(none) %3) #0 {
  %5 = tail call ptr @proto_tree_get_parent(ptr noundef %2)
  %6 = tail call i32 @tvb_captured_length(ptr noundef %0)
  %7 = load i32, ptr @hf_dlep_dataitem_li, align 4
  %8 = tail call ptr @proto_tree_add_item(ptr noundef %2, i32 noundef %7, ptr noundef %0, i32 noundef 0, i32 noundef %6, i32 noundef 0)
  %9 = icmp sgt i32 %6, 0
  br i1 %9, label %10, label %14

10:                                               ; preds = %4
  %11 = getelementptr inbounds nuw i8, ptr %1, i64 408
  %12 = load ptr, ptr %11, align 8
  %13 = tail call ptr @tvb_bytes_to_str(ptr noundef %12, ptr noundef %0, i32 noundef 0, i32 noundef %6)
  tail call void (ptr, ptr, ...) @proto_item_append_text(ptr noundef %5, ptr noundef nonnull @.str.212, ptr noundef %13)
  br label %14

14:                                               ; preds = %10, %4
  ret i32 %6
}